target datalayout = "e-m:e-p270:32:32-p271:32:32-p272:64:64-i64:64-i128:128-f80:128-n8:16:32:64-S128"
target triple = "x86_64-pc-linux-gnu"

%"struct.Luau::BytecodeBuilder::ConstantKey" = type { i32, i64, i64 }
%"struct.Luau::BytecodeBuilder::Constant" = type { i32, %union.anon.82 }
%union.anon.82 = type { double, [8 x i8] }

@__const._ZN4Luau15BytecodeBuilder18addConstantBooleanEb.c = private unnamed_addr constant { i32, [4 x i8], { i8, [15 x i8] } } { i32 1, [4 x i8] undef, { i8, [15 x i8] } { i8 0, [15 x i8] undef } }, align 8

; Function Attrs: mustprogress uwtable
define dso_local noundef i32 @_ZN4Luau15BytecodeBuilder18addConstantBooleanEb(ptr noundef nonnull align 8 dereferenceable(840) %0, i1 noundef zeroext %1) #2 align 2 {
  %3 = alloca ptr, align 8
  %4 = alloca i8, align 1
  %5 = alloca %"struct.Luau::BytecodeBuilder::Constant", align 8
  %6 = alloca %"struct.Luau::BytecodeBuilder::ConstantKey", align 8
  store ptr %0, ptr %3, align 8, !tbaa !35
  %7 = zext i1 %1 to i8
  store i8 %7, ptr %4, align 1, !tbaa !221
  %8 = load ptr, ptr %3, align 8
  call void @llvm.lifetime.start.p0(i64 24, ptr %5) #19
  call void @llvm.memcpy.p0.p0.i64(ptr align 8 %5, ptr align 8 @__const._ZN4Luau15BytecodeBuilder18addConstantBooleanEb.c, i64 24, i1 false)
  %9 = load i8, ptr %4, align 1, !tbaa !221, !range !224, !noundef !225
  %10 = trunc i8 %9 to i1
  %11 = getelementptr inbounds nuw %"struct.Luau::BytecodeBuilder::Constant", ptr %5, i32 0, i32 1
  %12 = zext i1 %10 to i8
  store i8 %12, ptr %11, align 8, !tbaa !220
  call void @llvm.lifetime.start.p0(i64 24, ptr %6) #19
  %13 = getelementptr inbounds nuw %"struct.Luau::BytecodeBuilder::ConstantKey", ptr %6, i32 0, i32 0
  store i32 1, ptr %13, align 8, !tbaa !25
  %14 = getelementptr inbounds nuw %"struct.Luau::BytecodeBuilder::ConstantKey", ptr %6, i32 0, i32 1
  %15 = load i8, ptr %4, align 1, !tbaa !221, !range !224, !noundef !225
  %16 = trunc i8 %15 to i1
  %17 = zext i1 %16 to i64
  store i64 %17, ptr %14, align 8, !tbaa !29
  %18 = getelementptr inbounds nuw %"struct.Luau::BytecodeBuilder::ConstantKey", ptr %6, i32 0, i32 2
  store i64 0, ptr %18, align 8, !tbaa !139
  %19 = call noundef i32 @_ZN4Luau15BytecodeBuilder11addConstantERKNS0_11ConstantKeyERKNS0_8ConstantE(ptr noundef nonnull align 8 dereferenceable(840) %8, ptr noundef nonnull align 8 dereferenceable(24) %6, ptr noundef nonnull align 8 dereferenceable(24) %5)
  call void @llvm.lifetime.end.p0(i64 24, ptr %6) #19
  call void @llvm.lifetime.end.p0(i64 24, ptr %5) #19
  ret i32 %19
}